target datalayout = "e-m:e-p270:32:32-p271:32:32-p272:64:64-i64:64-i128:128-f80:128-n8:16:32:64-S128"
target triple = "x86_64-pc-linux-gnu"

%struct.ZSTDv05_parameters = type { i64, i32, i32, i32, i32, i32, i32, i32 }
%struct.ZBUFFv05_DCtx_s = type { ptr, %struct.ZSTDv05_parameters, ptr, i64, i64, ptr, i64, i64, i64, i64, i32, [5 x i8] }

; Function Attrs: nounwind uwtable
define i64 @ZSTDv05_freeDCtx(ptr noundef %0) #0 {
  %2 = alloca ptr, align 8
  store ptr %0, ptr %2, align 8, !tbaa !75
  %3 = load ptr, ptr %2, align 8, !tbaa !75
  call void @free(ptr noundef %3) #11
  ret i64 0
}

; Function Attrs: nounwind uwtable
define i64 @ZBUFFv05_freeDCtx(ptr noundef %0) #0 {
  %2 = alloca i64, align 8
  %3 = alloca ptr, align 8
  store ptr %0, ptr %3, align 8, !tbaa !96
  %4 = load ptr, ptr %3, align 8, !tbaa !96
  %5 = icmp eq ptr %4, null
  br i1 %5, label %6, label %7

6:                                                ; preds = %1
  store i64 0, ptr %2, align 8
  br label %19

7:                                                ; preds = %1
  %8 = load ptr, ptr %3, align 8, !tbaa !96
  %9 = getelementptr inbounds nuw %struct.ZBUFFv05_DCtx_s, ptr %8, i32 0, i32 0
  %10 = load ptr, ptr %9, align 8, !tbaa !98
  %11 = call i64 @ZSTDv05_freeDCtx(ptr noundef %10)
  %12 = load ptr, ptr %3, align 8, !tbaa !96
  %13 = getelementptr inbounds nuw %struct.ZBUFFv05_DCtx_s, ptr %12, i32 0, i32 2
  %14 = load ptr, ptr %13, align 8, !tbaa !101
  call void @free(ptr noundef %14) #11
  %15 = load ptr, ptr %3, align 8, !tbaa !96
  %16 = getelementptr inbounds nuw %struct.ZBUFFv05_DCtx_s, ptr %15, i32 0, i32 5
  %17 = load ptr, ptr %16, align 8, !tbaa !102
  call void @free(ptr noundef %17) #11
  %18 = load ptr, ptr %3, align 8, !tbaa !96
  call void @free(ptr noundef %18) #11
  store i64 0, ptr %2, align 8
  br label %19

19:                                               ; preds = %7, %6
  %20 = load i64, ptr %2, align 8
  ret i64 %20
}