; Function Attrs: mustprogress nounwind willreturn uwtable
define noundef i64 @ZBUFFv05_freeDCtx(ptr noundef captures(address_is_null) %0) local_unnamed_addr #19 {
  %2 = icmp eq ptr %0, null
  br i1 %2, label %9, label %3

3:                                                ; preds = %1
  %4 = load ptr, ptr %0, align 8, !tbaa !89
  tail call void @free(ptr noundef %4) #27
  %5 = getelementptr inbounds nuw i8, ptr %0, i64 48
  %6 = load ptr, ptr %5, align 8, !tbaa !93
  tail call void @free(ptr noundef %6) #27
  %7 = getelementptr inbounds nuw i8, ptr %0, i64 72
  %8 = load ptr, ptr %7, align 8, !tbaa !94
  tail call void @free(ptr noundef %8) #27
  tail call void @free(ptr noundef nonnull %0) #27
  br label %9

9:                                                ; preds = %1, %3
  ret i64 0
}